target datalayout = "e-m:e-p270:32:32-p271:32:32-p272:64:64-i64:64-i128:128-f80:128-n8:16:32:64-S128"
target triple = "x86_64-unknown-linux-gnu"

%"class.node::MemoryRetainer" = type { ptr }
%"class.std::__cxx11::basic_string" = type { %"struct.std::__cxx11::basic_string<char>::_Alloc_hider", i64, %union.anon.35 }
%"struct.std::__cxx11::basic_string<char>::_Alloc_hider" = type { ptr }
%union.anon.35 = type { i64, [8 x i8] }
%"class.node::quic::QuicError" = type { %"class.node::MemoryRetainer", %"class.std::__cxx11::basic_string", %struct.ngtcp2_connection_close_error, ptr }
%struct.ngtcp2_connection_close_error = type { i32, i64, i64, ptr, i64 }

@_ZTVN4node4quic9QuicErrorE = external unnamed_addr constant { [10 x ptr] }, align 8

; Function Attrs: mustprogress nounwind uwtable
define linkonce_odr dso_local void @_ZN4node14MemoryRetainerD2Ev(ptr noundef nonnull align 8 dereferenceable(8) %this) unnamed_addr #4 comdat align 2 {
entry:
  %this.addr = alloca ptr, align 8
  store ptr %this, ptr %this.addr, align 8
  ret void
}

; Function Attrs: mustprogress nounwind uwtable
define linkonce_odr dso_local void @_ZN4node14MemoryRetainerC2ERKS0_(ptr noundef nonnull align 8 dereferenceable(8) %this, ptr noundef nonnull align 8 dereferenceable(8) %0) unnamed_addr #4 comdat align 2 {
entry:
  %this.addr = alloca ptr, align 8
  %.addr = alloca ptr, align 8
  store ptr %this, ptr %this.addr, align 8
  store ptr %0, ptr %.addr, align 8
  %this1 = load ptr, ptr %this.addr, align 8
  store ptr getelementptr inbounds ({ [10 x ptr] }, ptr @_ZTVN4node14MemoryRetainerE, i32 0, i32 0, i32 2), ptr %this1, align 8
  ret void
}

; Function Attrs: mustprogress nounwind uwtable
define linkonce_odr dso_local void @_ZN4node4quic9QuicErrorD2Ev(ptr noundef nonnull align 8 dereferenceable(88) %this) unnamed_addr #4 comdat align 2 {
entry:
  %this.addr = alloca ptr, align 8
  store ptr %this, ptr %this.addr, align 8
  %this1 = load ptr, ptr %this.addr, align 8
  %reason_ = getelementptr inbounds %"class.node::quic::QuicError", ptr %this1, i32 0, i32 1
  call void @_ZNSt7__cxx1112basic_stringIcSt11char_traitsIcESaIcEED1Ev(ptr noundef nonnull align 8 dereferenceable(32) %reason_) #3
  call void @_ZN4node14MemoryRetainerD2Ev(ptr noundef nonnull align 8 dereferenceable(8) %this1) #3
  ret void
}

; Function Attrs: mustprogress nounwind uwtable
define linkonce_odr dso_local void @_ZN4node4quic9QuicErrorC2ERKS1_(ptr noundef nonnull align 8 dereferenceable(88) %this, ptr noundef nonnull align 8 dereferenceable(88) %0) unnamed_addr #4 comdat align 2 {
entry:
  %this.addr = alloca ptr, align 8
  %.addr = alloca ptr, align 8
  store ptr %this, ptr %this.addr, align 8
  store ptr %0, ptr %.addr, align 8
  %this1 = load ptr, ptr %this.addr, align 8
  %1 = load ptr, ptr %.addr, align 8
  call void @_ZN4node14MemoryRetainerC2ERKS0_(ptr noundef nonnull align 8 dereferenceable(8) %this1, ptr noundef nonnull align 8 dereferenceable(8) %1) #3
  store ptr getelementptr inbounds ({ [10 x ptr] }, ptr @_ZTVN4node4quic9QuicErrorE, i32 0, i32 0, i32 2), ptr %this1, align 8
  %reason_ = getelementptr inbounds %"class.node::quic::QuicError", ptr %this1, i32 0, i32 1
  %2 = load ptr, ptr %.addr, align 8
  %reason_2 = getelementptr inbounds %"class.node::quic::QuicError", ptr %2, i32 0, i32 1
  call void @_ZNSt7__cxx1112basic_stringIcSt11char_traitsIcESaIcEEC1ERKS4_(ptr noundef nonnull align 8 dereferenceable(32) %reason_, ptr noundef nonnull align 8 dereferenceable(32) %reason_2)
  %error_ = getelementptr inbounds %"class.node::quic::QuicError", ptr %this1, i32 0, i32 2
  %3 = load ptr, ptr %.addr, align 8
  %error_3 = getelementptr inbounds %"class.node::quic::QuicError", ptr %3, i32 0, i32 2
  call void @llvm.memcpy.p0.p0.i64(ptr align 8 %error_, ptr align 8 %error_3, i64 48, i1 false)
  ret void
}

; Function Attrs: mustprogress nounwind uwtable
define dso_local void @_ZN4node4quic7Session11Application11StreamCloseEPNS0_6StreamENS0_9QuicErrorE(ptr noundef nonnull align 8 dereferenceable(16) %this, ptr noundef %stream, ptr noundef %error) unnamed_addr #4 align 2 {
entry:
  %this.addr = alloca ptr, align 8
  %stream.addr = alloca ptr, align 8
  %error.indirect_addr = alloca ptr, align 8
  %agg.tmp = alloca %"class.node::quic::QuicError", align 8
  store ptr %this, ptr %this.addr, align 8
  store ptr %stream, ptr %stream.addr, align 8
  store ptr %error, ptr %error.indirect_addr, align 8
  %0 = load ptr, ptr %stream.addr, align 8
  call void @_ZN4node4quic9QuicErrorC2ERKS1_(ptr noundef nonnull align 8 dereferenceable(88) %agg.tmp, ptr noundef nonnull align 8 dereferenceable(88) %error)
  call void @_ZN4node4quic6Stream7DestroyENS0_9QuicErrorE(ptr noundef nonnull align 8 dereferenceable(256) %0, ptr noundef %agg.tmp)
  call void @_ZN4node4quic9QuicErrorD2Ev(ptr noundef nonnull align 8 dereferenceable(88) %agg.tmp) #3
  ret void
}